(lp0
(dp1
Vstatus
p2
I1
sVhospitalCode
p3
V03
p4
sVtimeIndexNo
p5
V1
p6
sVdateTime
p7
V2021-09-03 07:30:00
p8
sVtime
p9
V07:30
p10
sVhospitalName
p11
V\u5987\u5e7c\u4fdd\u5065\u9662\u603b\u9662
p12
sVroomId
p13
V40
p14
sa(dp15
Vstatus
p16
I1
sVhospitalCode
p17
V03
p18
sVtimeIndexNo
p19
V2
p20
sVdateTime
p21
V2021-09-03 07:33:00
p22
sVtime
p23
V07:33
p24
sVhospitalName
p25
V\u5987\u5e7c\u4fdd\u5065\u9662\u603b\u9662
p26
sVroomId
p27
V40
p28
sa(dp29
Vstatus
p30
I1
sVhospitalCode
p31
V03
p32
sVtimeIndexNo
p33
V3
p34
sVdateTime
p35
V2021-09-03 07:36:00
p36
sVtime
p37
V07:36
p38
sVhospitalName
p39
V\u5987\u5e7c\u4fdd\u5065\u9662\u603b\u9662
p40
sVroomId
p41
V40
p42
sa(dp43
Vstatus
p44
I1
sVhospitalCode
p45
V03
p46
sVtimeIndexNo
p47
V4
p48
sVdateTime
p49
V2021-09-03 07:39:00
p50
sVtime
p51
V07:39
p52
sVhospitalName
p53
V\u5987\u5e7c\u4fdd\u5065\u9662\u603b\u9662
p54
sVroomId
p55
V40
p56
sa(dp57
Vstatus
p58
I1
sVhospitalCode
p59
V03
p60
sVtimeIndexNo
p61
V5
p62
sVdateTime
p63
V2021-09-03 07:42:00
p64
sVtime
p65
V07:42
p66
sVhospitalName
p67
V\u5987\u5e7c\u4fdd\u5065\u9662\u603b\u9662
p68
sVroomId
p69
V40
p70
sa(dp71
Vstatus
p72
I1
sVhospitalCode
p73
V03
p74
sVtimeIndexNo
p75
V6
p76
sVdateTime
p77
V2021-09-03 07:45:00
p78
sVtime
p79
V07:45
p80
sVhospitalName
p81
V\u5987\u5e7c\u4fdd\u5065\u9662\u603b\u9662
p82
sVroomId
p83
V40
p84
sa(dp85
Vstatus
p86
I1
sVhospitalCode
p87
V03
p88
sVtimeIndexNo
p89
V7
p90
sVdateTime
p91
V2021-09-03 07:48:00
p92
sVtime
p93
V07:48
p94
sVhospitalName
p95
V\u5987\u5e7c\u4fdd\u5065\u9662\u603b\u9662
p96
sVroomId
p97
V40
p98
sa(dp99
Vstatus
p100
I1
sVhospitalCode
p101
V03
p102
sVtimeIndexNo
p103
V8
p104
sVdateTime
p105
V2021-09-03 07:51:00
p106
sVtime
p107
V07:51
p108
sVhospitalName
p109
V\u5987\u5e7c\u4fdd\u5065\u9662\u603b\u9662
p110
sVroomId
p111
V40
p112
sa(dp113
Vstatus
p114
I1
sVhospitalCode
p115
V03
p116
sVtimeIndexNo
p117
V9
p118
sVdateTime
p119
V2021-09-03 07:54:00
p120
sVtime
p121
V07:54
p122
sVhospitalName
p123
V\u5987\u5e7c\u4fdd\u5065\u9662\u603b\u9662
p124
sVroomId
p125
V40
p126
sa(dp127
Vstatus
p128
I1
sVhospitalCode
p129
V03
p130
sVtimeIndexNo
p131
V10
p132
sVdateTime
p133
V2021-09-03 07:57:00
p134
sVtime
p135
V07:57
p136
sVhospitalName
p137
V\u5987\u5e7c\u4fdd\u5065\u9662\u603b\u9662
p138
sVroomId
p139
V40
p140
sa(dp141
Vstatus
p142
I1
sVhospitalCode
p143
V03
p144
sVtimeIndexNo
p145
V11
p146
sVdateTime
p147
V2021-09-03 08:00:00
p148
sVtime
p149
V08:00
p150
sVhospitalName
p151
V\u5987\u5e7c\u4fdd\u5065\u9662\u603b\u9662
p152
sVroomId
p153
V40
p154
sa(dp155
Vstatus
p156
I1
sVhospitalCode
p157
V03
p158
sVtimeIndexNo
p159
V12
p160
sVdateTime
p161
V2021-09-03 08:03:00
p162
sVtime
p163
V08:03
p164
sVhospitalName
p165
V\u5987\u5e7c\u4fdd\u5065\u9662\u603b\u9662
p166
sVroomId
p167
V40
p168
sa(dp169
Vstatus
p170
I1
sVhospitalCode
p171
V03
p172
sVtimeIndexNo
p173
V13
p174
sVdateTime
p175
V2021-09-03 08:06:00
p176
sVtime
p177
V08:06
p178
sVhospitalName
p179
V\u5987\u5e7c\u4fdd\u5065\u9662\u603b\u9662
p180
sVroomId
p181
V40
p182
sa(dp183
Vstatus
p184
I1
sVhospitalCode
p185
V03
p186
sVtimeIndexNo
p187
V14
p188
sVdateTime
p189
V2021-09-03 08:09:00
p190
sVtime
p191
V08:09
p192
sVhospitalName
p193
V\u5987\u5e7c\u4fdd\u5065\u9662\u603b\u9662
p194
sVroomId
p195
V40
p196
sa(dp197
Vstatus
p198
I1
sVhospitalCode
p199
V03
p200
sVtimeIndexNo
p201
V15
p202
sVdateTime
p203
V2021-09-03 08:12:00
p204
sVtime
p205
V08:12
p206
sVhospitalName
p207
V\u5987\u5e7c\u4fdd\u5065\u9662\u603b\u9662
p208
sVroomId
p209
V40
p210
sa(dp211
Vstatus
p212
I1
sVhospitalCode
p213
V03
p214
sVtimeIndexNo
p215
V16
p216
sVdateTime
p217
V2021-09-03 08:15:00
p218
sVtime
p219
V08:15
p220
sVhospitalName
p221
V\u5987\u5e7c\u4fdd\u5065\u9662\u603b\u9662
p222
sVroomId
p223
V40
p224
sa(dp225
Vstatus
p226
I1
sVhospitalCode
p227
V03
p228
sVtimeIndexNo
p229
V17
p230
sVdateTime
p231
V2021-09-03 08:18:00
p232
sVtime
p233
V08:18
p234
sVhospitalName
p235
V\u5987\u5e7c\u4fdd\u5065\u9662\u603b\u9662
p236
sVroomId
p237
V40
p238
sa(dp239
Vstatus
p240
I1
sVhospitalCode
p241
V03
p242
sVtimeIndexNo
p243
V18
p244
sVdateTime
p245
V2021-09-03 08:21:00
p246
sVtime
p247
V08:21
p248
sVhospitalName
p249
V\u5987\u5e7c\u4fdd\u5065\u9662\u603b\u9662
p250
sVroomId
p251
V40
p252
sa(dp253
Vstatus
p254
I1
sVhospitalCode
p255
V03
p256
sVtimeIndexNo
p257
V19
p258
sVdateTime
p259
V2021-09-03 08:24:00
p260
sVtime
p261
V08:24
p262
sVhospitalName
p263
V\u5987\u5e7c\u4fdd\u5065\u9662\u603b\u9662
p264
sVroomId
p265
V40
p266
sa(dp267
Vstatus
p268
I1
sVhospitalCode
p269
V03
p270
sVtimeIndexNo
p271
V20
p272
sVdateTime
p273
V2021-09-03 08:27:00
p274
sVtime
p275
V08:27
p276
sVhospitalName
p277
V\u5987\u5e7c\u4fdd\u5065\u9662\u603b\u9662
p278
sVroomId
p279
V40
p280
sa(dp281
Vstatus
p282
I1
sVhospitalCode
p283
V03
p284
sVtimeIndexNo
p285
V21
p286
sVdateTime
p287
V2021-09-03 08:30:00
p288
sVtime
p289
V08:30
p290
sVhospitalName
p291
V\u5987\u5e7c\u4fdd\u5065\u9662\u603b\u9662
p292
sVroomId
p293
V40
p294
sa(dp295
Vstatus
p296
I1
sVhospitalCode
p297
V03
p298
sVtimeIndexNo
p299
V22
p300
sVdateTime
p301
V2021-09-03 08:33:00
p302
sVtime
p303
V08:33
p304
sVhospitalName
p305
V\u5987\u5e7c\u4fdd\u5065\u9662\u603b\u9662
p306
sVroomId
p307
V40
p308
sa(dp309
Vstatus
p310
I1
sVhospitalCode
p311
V03
p312
sVtimeIndexNo
p313
V23
p314
sVdateTime
p315
V2021-09-03 08:36:00
p316
sVtime
p317
V08:36
p318
sVhospitalName
p319
V\u5987\u5e7c\u4fdd\u5065\u9662\u603b\u9662
p320
sVroomId
p321
V40
p322
sa(dp323
Vstatus
p324
I1
sVhospitalCode
p325
V03
p326
sVtimeIndexNo
p327
V24
p328
sVdateTime
p329
V2021-09-03 08:39:00
p330
sVtime
p331
V08:39
p332
sVhospitalName
p333
V\u5987\u5e7c\u4fdd\u5065\u9662\u603b\u9662
p334
sVroomId
p335
V40
p336
sa(dp337
Vstatus
p338
I1
sVhospitalCode
p339
V03
p340
sVtimeIndexNo
p341
V25
p342
sVdateTime
p343
V2021-09-03 08:42:00
p344
sVtime
p345
V08:42
p346
sVhospitalName
p347
V\u5987\u5e7c\u4fdd\u5065\u9662\u603b\u9662
p348
sVroomId
p349
V40
p350
sa(dp351
Vstatus
p352
I1
sVhospitalCode
p353
V03
p354
sVtimeIndexNo
p355
V26
p356
sVdateTime
p357
V2021-09-03 08:45:00
p358
sVtime
p359
V08:45
p360
sVhospitalName
p361
V\u5987\u5e7c\u4fdd\u5065\u9662\u603b\u9662
p362
sVroomId
p363
V40
p364
sa(dp365
Vstatus
p366
I1
sVhospitalCode
p367
V03
p368
sVtimeIndexNo
p369
V27
p370
sVdateTime
p371
V2021-09-03 08:48:00
p372
sVtime
p373
V08:48
p374
sVhospitalName
p375
V\u5987\u5e7c\u4fdd\u5065\u9662\u603b\u9662
p376
sVroomId
p377
V40
p378
sa(dp379
Vstatus
p380
I1
sVhospitalCode
p381
V03
p382
sVtimeIndexNo
p383
V28
p384
sVdateTime
p385
V2021-09-03 08:51:00
p386
sVtime
p387
V08:51
p388
sVhospitalName
p389
V\u5987\u5e7c\u4fdd\u5065\u9662\u603b\u9662
p390
sVroomId
p391
V40
p392
sa(dp393
Vstatus
p394
I1
sVhospitalCode
p395
V03
p396
sVtimeIndexNo
p397
V29
p398
sVdateTime
p399
V2021-09-03 08:54:00
p400
sVtime
p401
V08:54
p402
sVhospitalName
p403
V\u5987\u5e7c\u4fdd\u5065\u9662\u603b\u9662
p404
sVroomId
p405
V40
p406
sa(dp407
Vstatus
p408
I1
sVhospitalCode
p409
V03
p410
sVtimeIndexNo
p411
V30
p412
sVdateTime
p413
V2021-09-03 08:57:00
p414
sVtime
p415
V08:57
p416
sVhospitalName
p417
V\u5987\u5e7c\u4fdd\u5065\u9662\u603b\u9662
p418
sVroomId
p419
V40
p420
sa(dp421
Vstatus
p422
I1
sVhospitalCode
p423
V03
p424
sVtimeIndexNo
p425
V31
p426
sVdateTime
p427
V2021-09-03 09:00:00
p428
sVtime
p429
V09:00
p430
sVhospitalName
p431
V\u5987\u5e7c\u4fdd\u5065\u9662\u603b\u9662
p432
sVroomId
p433
V40
p434
sa(dp435
Vstatus
p436
I1
sVhospitalCode
p437
V03
p438
sVtimeIndexNo
p439
V32
p440
sVdateTime
p441
V2021-09-03 09:03:00
p442
sVtime
p443
V09:03
p444
sVhospitalName
p445
V\u5987\u5e7c\u4fdd\u5065\u9662\u603b\u9662
p446
sVroomId
p447
V40
p448
sa(dp449
Vstatus
p450
I1
sVhospitalCode
p451
V03
p452
sVtimeIndexNo
p453
V33
p454
sVdateTime
p455
V2021-09-03 09:06:00
p456
sVtime
p457
V09:06
p458
sVhospitalName
p459
V\u5987\u5e7c\u4fdd\u5065\u9662\u603b\u9662
p460
sVroomId
p461
V40
p462
sa(dp463
Vstatus
p464
I1
sVhospitalCode
p465
V03
p466
sVtimeIndexNo
p467
V34
p468
sVdateTime
p469
V2021-09-03 09:09:00
p470
sVtime
p471
V09:09
p472
sVhospitalName
p473
V\u5987\u5e7c\u4fdd\u5065\u9662\u603b\u9662
p474
sVroomId
p475
V40
p476
sa(dp477
Vstatus
p478
I1
sVhospitalCode
p479
V03
p480
sVtimeIndexNo
p481
V35
p482
sVdateTime
p483
V2021-09-03 09:12:00
p484
sVtime
p485
V09:12
p486
sVhospitalName
p487
V\u5987\u5e7c\u4fdd\u5065\u9662\u603b\u9662
p488
sVroomId
p489
V40
p490
sa(dp491
Vstatus
p492
I1
sVhospitalCode
p493
V03
p494
sVtimeIndexNo
p495
V36
p496
sVdateTime
p497
V2021-09-03 09:15:00
p498
sVtime
p499
V09:15
p500
sVhospitalName
p501
V\u5987\u5e7c\u4fdd\u5065\u9662\u603b\u9662
p502
sVroomId
p503
V40
p504
sa(dp505
Vstatus
p506
I1
sVhospitalCode
p507
V03
p508
sVtimeIndexNo
p509
V37
p510
sVdateTime
p511
V2021-09-03 09:18:00
p512
sVtime
p513
V09:18
p514
sVhospitalName
p515
V\u5987\u5e7c\u4fdd\u5065\u9662\u603b\u9662
p516
sVroomId
p517
V40
p518
sa(dp519
Vstatus
p520
I1
sVhospitalCode
p521
V03
p522
sVtimeIndexNo
p523
V38
p524
sVdateTime
p525
V2021-09-03 09:21:00
p526
sVtime
p527
V09:21
p528
sVhospitalName
p529
V\u5987\u5e7c\u4fdd\u5065\u9662\u603b\u9662
p530
sVroomId
p531
V40
p532
sa(dp533
Vstatus
p534
I1
sVhospitalCode
p535
V03
p536
sVtimeIndexNo
p537
V39
p538
sVdateTime
p539
V2021-09-03 09:24:00
p540
sVtime
p541
V09:24
p542
sVhospitalName
p543
V\u5987\u5e7c\u4fdd\u5065\u9662\u603b\u9662
p544
sVroomId
p545
V40
p546
sa(dp547
Vstatus
p548
I1
sVhospitalCode
p549
V03
p550
sVtimeIndexNo
p551
V40
p552
sVdateTime
p553
V2021-09-03 09:27:00
p554
sVtime
p555
V09:27
p556
sVhospitalName
p557
V\u5987\u5e7c\u4fdd\u5065\u9662\u603b\u9662
p558
sVroomId
p559
V40
p560
sa(dp561
Vstatus
p562
I1
sVhospitalCode
p563
V03
p564
sVtimeIndexNo
p565
V41
p566
sVdateTime
p567
V2021-09-03 09:30:00
p568
sVtime
p569
V09:30
p570
sVhospitalName
p571
V\u5987\u5e7c\u4fdd\u5065\u9662\u603b\u9662
p572
sVroomId
p573
V40
p574
sa(dp575
Vstatus
p576
I1
sVhospitalCode
p577
V03
p578
sVtimeIndexNo
p579
V42
p580
sVdateTime
p581
V2021-09-03 09:33:00
p582
sVtime
p583
V09:33
p584
sVhospitalName
p585
V\u5987\u5e7c\u4fdd\u5065\u9662\u603b\u9662
p586
sVroomId
p587
V40
p588
sa(dp589
Vstatus
p590
I1
sVhospitalCode
p591
V03
p592
sVtimeIndexNo
p593
V43
p594
sVdateTime
p595
V2021-09-03 09:36:00
p596
sVtime
p597
V09:36
p598
sVhospitalName
p599
V\u5987\u5e7c\u4fdd\u5065\u9662\u603b\u9662
p600
sVroomId
p601
V40
p602
sa(dp603
Vstatus
p604
I1
sVhospitalCode
p605
V03
p606
sVtimeIndexNo
p607
V44
p608
sVdateTime
p609
V2021-09-03 09:39:00
p610
sVtime
p611
V09:39
p612
sVhospitalName
p613
V\u5987\u5e7c\u4fdd\u5065\u9662\u603b\u9662
p614
sVroomId
p615
V40
p616
sa(dp617
Vstatus
p618
I1
sVhospitalCode
p619
V03
p620
sVtimeIndexNo
p621
V45
p622
sVdateTime
p623
V2021-09-03 09:42:00
p624
sVtime
p625
V09:42
p626
sVhospitalName
p627
V\u5987\u5e7c\u4fdd\u5065\u9662\u603b\u9662
p628
sVroomId
p629
V40
p630
sa(dp631
Vstatus
p632
I1
sVhospitalCode
p633
V03
p634
sVtimeIndexNo
p635
V46
p636
sVdateTime
p637
V2021-09-03 09:45:00
p638
sVtime
p639
V09:45
p640
sVhospitalName
p641
V\u5987\u5e7c\u4fdd\u5065\u9662\u603b\u9662
p642
sVroomId
p643
V40
p644
sa(dp645
Vstatus
p646
I1
sVhospitalCode
p647
V03
p648
sVtimeIndexNo
p649
V47
p650
sVdateTime
p651
V2021-09-03 09:48:00
p652
sVtime
p653
V09:48
p654
sVhospitalName
p655
V\u5987\u5e7c\u4fdd\u5065\u9662\u603b\u9662
p656
sVroomId
p657
V40
p658
sa(dp659
Vstatus
p660
I1
sVhospitalCode
p661
V03
p662
sVtimeIndexNo
p663
V48
p664
sVdateTime
p665
V2021-09-03 09:51:00
p666
sVtime
p667
V09:51
p668
sVhospitalName
p669
V\u5987\u5e7c\u4fdd\u5065\u9662\u603b\u9662
p670
sVroomId
p671
V40
p672
sa(dp673
Vstatus
p674
I1
sVhospitalCode
p675
V03
p676
sVtimeIndexNo
p677
V49
p678
sVdateTime
p679
V2021-09-03 09:54:00
p680
sVtime
p681
V09:54
p682
sVhospitalName
p683
V\u5987\u5e7c\u4fdd\u5065\u9662\u603b\u9662
p684
sVroomId
p685
V40
p686
sa(dp687
Vstatus
p688
I1
sVhospitalCode
p689
V03
p690
sVtimeIndexNo
p691
V50
p692
sVdateTime
p693
V2021-09-03 09:57:00
p694
sVtime
p695
V09:57
p696
sVhospitalName
p697
V\u5987\u5e7c\u4fdd\u5065\u9662\u603b\u9662
p698
sVroomId
p699
V40
p700
sa.